target datalayout = "e-m:e-p270:32:32-p271:32:32-p272:64:64-i64:64-i128:128-f80:128-n8:16:32:64-S128"
target triple = "x86_64-pc-linux-gnu"

; Function Attrs: nounwind uwtable
define internal void @Mean16x4_C(ptr noalias noundef %0, ptr noundef %1) #0 {
  %3 = alloca ptr, align 8
  %4 = alloca ptr, align 8
  %5 = alloca i32, align 4
  %6 = alloca i32, align 4
  %7 = alloca i32, align 4
  %8 = alloca i32, align 4
  store ptr %0, ptr %3, align 8, !tbaa !18
  store ptr %1, ptr %4, align 8, !tbaa !3
  call void @llvm.lifetime.start.p0(i64 4, ptr %5) #8
  call void @llvm.lifetime.start.p0(i64 4, ptr %6) #8
  call void @llvm.lifetime.start.p0(i64 4, ptr %7) #8
  store i32 0, ptr %5, align 4, !tbaa !9
  br label %9

9:                                                ; preds = %47, %2
  %10 = load i32, ptr %5, align 4, !tbaa !9
  %11 = icmp slt i32 %10, 4
  br i1 %11, label %12, label %50

12:                                               ; preds = %9
  call void @llvm.lifetime.start.p0(i64 4, ptr %8) #8
  store i32 0, ptr %8, align 4, !tbaa !9
  store i32 0, ptr %7, align 4, !tbaa !9
  br label %13

13:                                               ; preds = %36, %12
  %14 = load i32, ptr %7, align 4, !tbaa !9
  %15 = icmp slt i32 %14, 4
  br i1 %15, label %16, label %39

16:                                               ; preds = %13
  store i32 0, ptr %6, align 4, !tbaa !9
  br label %17

17:                                               ; preds = %32, %16
  %18 = load i32, ptr %6, align 4, !tbaa !9
  %19 = icmp slt i32 %18, 4
  br i1 %19, label %20, label %35

20:                                               ; preds = %17
  %21 = load ptr, ptr %3, align 8, !tbaa !18
  %22 = load i32, ptr %6, align 4, !tbaa !9
  %23 = load i32, ptr %7, align 4, !tbaa !9
  %24 = mul nsw i32 %23, 32
  %25 = add nsw i32 %22, %24
  %26 = sext i32 %25 to i64
  %27 = getelementptr inbounds i8, ptr %21, i64 %26
  %28 = load i8, ptr %27, align 1, !tbaa !16
  %29 = zext i8 %28 to i32
  %30 = load i32, ptr %8, align 4, !tbaa !9
  %31 = add i32 %30, %29
  store i32 %31, ptr %8, align 4, !tbaa !9
  br label %32

32:                                               ; preds = %20
  %33 = load i32, ptr %6, align 4, !tbaa !9
  %34 = add nsw i32 %33, 1
  store i32 %34, ptr %6, align 4, !tbaa !9
  br label %17, !llvm.loop !35

35:                                               ; preds = %17
  br label %36

36:                                               ; preds = %35
  %37 = load i32, ptr %7, align 4, !tbaa !9
  %38 = add nsw i32 %37, 1
  store i32 %38, ptr %7, align 4, !tbaa !9
  br label %13, !llvm.loop !36

39:                                               ; preds = %13
  %40 = load i32, ptr %8, align 4, !tbaa !9
  %41 = load ptr, ptr %4, align 8, !tbaa !3
  %42 = load i32, ptr %5, align 4, !tbaa !9
  %43 = sext i32 %42 to i64
  %44 = getelementptr inbounds i32, ptr %41, i64 %43
  store i32 %40, ptr %44, align 4, !tbaa !9
  %45 = load ptr, ptr %3, align 8, !tbaa !18
  %46 = getelementptr inbounds i8, ptr %45, i64 4
  store ptr %46, ptr %3, align 8, !tbaa !18
  call void @llvm.lifetime.end.p0(i64 4, ptr %8) #8
  br label %47

47:                                               ; preds = %39
  %48 = load i32, ptr %5, align 4, !tbaa !9
  %49 = add nsw i32 %48, 1
  store i32 %49, ptr %5, align 4, !tbaa !9
  br label %9, !llvm.loop !37

50:                                               ; preds = %9
  call void @llvm.lifetime.end.p0(i64 4, ptr %7) #8
  call void @llvm.lifetime.end.p0(i64 4, ptr %6) #8
  call void @llvm.lifetime.end.p0(i64 4, ptr %5) #8
  ret void
}