; Function Attrs: nofree norecurse nosync nounwind memory(argmem: readwrite) uwtable
define internal void @Mean16x4_C(ptr noalias noundef readonly captures(none) %0, ptr noundef writeonly captures(none) %1) #0 {
  br label %.preheader17

.preheader17:                                     ; preds = %2, %9
  %indvars.iv29 = phi i64 [ 0, %2 ], [ %indvars.iv.next30, %9 ]
  %.01622 = phi ptr [ %0, %2 ], [ %11, %9 ]
  br label %.preheader

.preheader:                                       ; preds = %.preheader17, %8
  %indvars.iv25 = phi i64 [ 0, %.preheader17 ], [ %indvars.iv.next26, %8 ]
  %.021 = phi i32 [ 0, %.preheader17 ], [ %7, %8 ]
  %3 = shl nuw nsw i64 %indvars.iv25, 5
  %invariant.gep = getelementptr inbounds nuw i8, ptr %.01622, i64 %3
  br label %4

4:                                                ; preds = %.preheader, %4
  %indvars.iv = phi i64 [ 0, %.preheader ], [ %indvars.iv.next, %4 ]
  %.119 = phi i32 [ %.021, %.preheader ], [ %7, %4 ]
  %gep = getelementptr inbounds nuw i8, ptr %invariant.gep, i64 %indvars.iv
  %5 = load i8, ptr %gep, align 1, !tbaa !14
  %6 = zext i8 %5 to i32
  %7 = add i32 %.119, %6
  %indvars.iv.next = add nuw nsw i64 %indvars.iv, 1
  %exitcond.not = icmp eq i64 %indvars.iv.next, 4
  br i1 %exitcond.not, label %8, label %4, !llvm.loop !273

8:                                                ; preds = %4
  %indvars.iv.next26 = add nuw nsw i64 %indvars.iv25, 1
  %exitcond28.not = icmp eq i64 %indvars.iv.next26, 4
  br i1 %exitcond28.not, label %9, label %.preheader, !llvm.loop !274

9:                                                ; preds = %8
  %10 = getelementptr inbounds nuw i32, ptr %1, i64 %indvars.iv29
  store i32 %7, ptr %10, align 4, !tbaa !3
  %11 = getelementptr inbounds nuw i8, ptr %.01622, i64 4
  %indvars.iv.next30 = add nuw nsw i64 %indvars.iv29, 1
  %exitcond32.not = icmp eq i64 %indvars.iv.next30, 4
  br i1 %exitcond32.not, label %12, label %.preheader17, !llvm.loop !275

12:                                               ; preds = %9
  ret void
}